target datalayout = "e-m:e-p270:32:32-p271:32:32-p272:64:64-i64:64-i128:128-f80:128-n8:16:32:64-S128"
target triple = "x86_64-pc-linux-gnu"

%struct.gmac_data_st = type { ptr, ptr, %struct.PROV_CIPHER }
%struct.PROV_CIPHER = type { ptr, ptr, ptr }

@.str = private unnamed_addr constant [54 x i8] c"../openssl/providers/implementations/macs/gmac_prov.c\00", align 1
@__func__.gmac_setkey = private unnamed_addr constant [12 x i8] c"gmac_setkey\00", align 1

; Function Attrs: nounwind uwtable
define internal i32 @gmac_setkey(ptr noundef %0, ptr noundef %1, i64 noundef %2) #0 {
  %4 = alloca i32, align 4
  %5 = alloca ptr, align 8
  %6 = alloca ptr, align 8
  %7 = alloca i64, align 8
  %8 = alloca ptr, align 8
  %9 = alloca i32, align 4
  store ptr %0, ptr %5, align 8, !tbaa !7
  store ptr %1, ptr %6, align 8, !tbaa !16
  store i64 %2, ptr %7, align 8, !tbaa !18
  call void @llvm.lifetime.start.p0(i64 8, ptr %8) #6
  %10 = load ptr, ptr %5, align 8, !tbaa !7
  %11 = getelementptr inbounds nuw %struct.gmac_data_st, ptr %10, i32 0, i32 1
  %12 = load ptr, ptr %11, align 8, !tbaa !9
  store ptr %12, ptr %8, align 8, !tbaa !22
  %13 = load i64, ptr %7, align 8, !tbaa !18
  %14 = load ptr, ptr %8, align 8, !tbaa !22
  %15 = call i32 @EVP_CIPHER_CTX_get_key_length(ptr noundef %14)
  %16 = sext i32 %15 to i64
  %17 = icmp ne i64 %13, %16
  br i1 %17, label %18, label %19

18:                                               ; preds = %3
  call void @ERR_new()
  call void @ERR_set_debug(ptr noundef @.str, i32 noundef 106, ptr noundef @__func__.gmac_setkey)
  call void (i32, i32, ptr, ...) @ERR_set_error(i32 noundef 57, i32 noundef 105, ptr noundef null)
  store i32 0, ptr %4, align 4
  store i32 1, ptr %9, align 4
  br label %26

19:                                               ; preds = %3
  %20 = load ptr, ptr %8, align 8, !tbaa !22
  %21 = load ptr, ptr %6, align 8, !tbaa !16
  %22 = call i32 @EVP_EncryptInit_ex(ptr noundef %20, ptr noundef null, ptr noundef null, ptr noundef %21, ptr noundef null)
  %23 = icmp ne i32 %22, 0
  br i1 %23, label %25, label %24

24:                                               ; preds = %19
  store i32 0, ptr %4, align 4
  store i32 1, ptr %9, align 4
  br label %26

25:                                               ; preds = %19
  store i32 1, ptr %4, align 4
  store i32 1, ptr %9, align 4
  br label %26

26:                                               ; preds = %25, %24, %18
  call void @llvm.lifetime.end.p0(i64 8, ptr %8) #6
  %27 = load i32, ptr %4, align 4
  ret i32 %27
}

; Function Attrs: nounwind uwtable
define internal i32 @gmac_init(ptr noundef %0, ptr noundef %1, i64 noundef %2, ptr noundef %3) #0 {
  %5 = alloca i32, align 4
  %6 = alloca ptr, align 8
  %7 = alloca ptr, align 8
  %8 = alloca i64, align 8
  %9 = alloca ptr, align 8
  %10 = alloca ptr, align 8
  %11 = alloca i32, align 4
  store ptr %0, ptr %6, align 8, !tbaa !3
  store ptr %1, ptr %7, align 8, !tbaa !16
  store i64 %2, ptr %8, align 8, !tbaa !18
  store ptr %3, ptr %9, align 8, !tbaa !20
  call void @llvm.lifetime.start.p0(i64 8, ptr %10) #6
  %12 = load ptr, ptr %6, align 8, !tbaa !3
  store ptr %12, ptr %10, align 8, !tbaa !7
  %13 = call i32 @ossl_prov_is_running()
  %14 = icmp ne i32 %13, 0
  br i1 %14, label %15, label %20

15:                                               ; preds = %4
  %16 = load ptr, ptr %10, align 8, !tbaa !7
  %17 = load ptr, ptr %9, align 8, !tbaa !20
  %18 = call i32 @gmac_set_ctx_params(ptr noundef %16, ptr noundef %17)
  %19 = icmp ne i32 %18, 0
  br i1 %19, label %21, label %20

20:                                               ; preds = %15, %4
  store i32 0, ptr %5, align 4
  store i32 1, ptr %11, align 4
  br label %34

21:                                               ; preds = %15
  %22 = load ptr, ptr %7, align 8, !tbaa !16
  %23 = icmp ne ptr %22, null
  br i1 %23, label %24, label %29

24:                                               ; preds = %21
  %25 = load ptr, ptr %10, align 8, !tbaa !7
  %26 = load ptr, ptr %7, align 8, !tbaa !16
  %27 = load i64, ptr %8, align 8, !tbaa !18
  %28 = call i32 @gmac_setkey(ptr noundef %25, ptr noundef %26, i64 noundef %27)
  store i32 %28, ptr %5, align 4
  store i32 1, ptr %11, align 4
  br label %34

29:                                               ; preds = %21
  %30 = load ptr, ptr %10, align 8, !tbaa !7
  %31 = getelementptr inbounds nuw %struct.gmac_data_st, ptr %30, i32 0, i32 1
  %32 = load ptr, ptr %31, align 8, !tbaa !9
  %33 = call i32 @EVP_EncryptInit_ex(ptr noundef %32, ptr noundef null, ptr noundef null, ptr noundef null, ptr noundef null)
  store i32 %33, ptr %5, align 4
  store i32 1, ptr %11, align 4
  br label %34

34:                                               ; preds = %29, %24, %20
  call void @llvm.lifetime.end.p0(i64 8, ptr %10) #6
  %35 = load i32, ptr %5, align 4
  ret i32 %35
}