; Function Attrs: nounwind uwtable
define internal i32 @gmac_init(ptr noundef %0, ptr noundef %1, i64 noundef %2, ptr noundef %3) #0 {
  %5 = tail call i32 @ossl_prov_is_running() #5
  %.not = icmp eq i32 %5, 0
  br i1 %.not, label %gmac_setkey.exit, label %6

6:                                                ; preds = %4
  %7 = tail call i32 @gmac_set_ctx_params(ptr noundef %0, ptr noundef %3)
  %.not9 = icmp eq i32 %7, 0
  br i1 %.not9, label %gmac_setkey.exit, label %8

8:                                                ; preds = %6
  %.not10 = icmp eq ptr %1, null
  %9 = getelementptr i8, ptr %0, i64 8
  %10 = load ptr, ptr %9, align 8, !tbaa !3
  br i1 %.not10, label %17, label %11

11:                                               ; preds = %8
  %12 = tail call i32 @EVP_CIPHER_CTX_get_key_length(ptr noundef %10) #5
  %13 = sext i32 %12 to i64
  %.not.i = icmp eq i64 %2, %13
  br i1 %.not.i, label %15, label %14

14:                                               ; preds = %11
  tail call void @ERR_new() #5
  tail call void @ERR_set_debug(ptr noundef nonnull @.str, i32 noundef 106, ptr noundef nonnull @__func__.gmac_setkey) #5
  tail call void (i32, i32, ptr, ...) @ERR_set_error(i32 noundef 57, i32 noundef 105, ptr noundef null) #5
  br label %gmac_setkey.exit

15:                                               ; preds = %11
  %16 = tail call i32 @EVP_EncryptInit_ex(ptr noundef %10, ptr noundef null, ptr noundef null, ptr noundef nonnull %1, ptr noundef null) #5
  %.not5.i = icmp ne i32 %16, 0
  %..i = zext i1 %.not5.i to i32
  br label %gmac_setkey.exit

17:                                               ; preds = %8
  %18 = tail call i32 @EVP_EncryptInit_ex(ptr noundef %10, ptr noundef null, ptr noundef null, ptr noundef null, ptr noundef null) #5
  br label %gmac_setkey.exit

gmac_setkey.exit:                                 ; preds = %15, %14, %4, %6, %17
  %.0 = phi i32 [ %18, %17 ], [ 0, %6 ], [ 0, %4 ], [ 0, %14 ], [ %..i, %15 ]
  ret i32 %.0
}